; Function Attrs: mustprogress nofree norecurse nosync nounwind willreturn memory(argmem: read) uwtable
define hidden noundef nonnull ptr @_ZNK11ConstMethod29method_parameters_length_addrEv(ptr noundef nonnull readonly align 8 dereferenceable(52) %0) local_unnamed_addr #1 align 2 {
  %2 = getelementptr inbounds i8, ptr %0, i64 28
  %3 = load i32, ptr %2, align 4
  %4 = and i32 %3, 16
  %.not = icmp eq i32 %4, 0
  %5 = lshr i32 %3, 7
  %.lobit.i1 = and i32 %5, 1
  %6 = lshr i32 %3, 8
  %7 = and i32 %6, 1
  %.1.i2 = add nuw nsw i32 %.lobit.i1, %7
  %8 = lshr i32 %3, 9
  %9 = and i32 %8, 1
  %.2.i3 = add nuw nsw i32 %.1.i2, %9
  %10 = lshr i32 %3, 10
  %11 = and i32 %10, 1
  %.3.i4 = add nuw nsw i32 %.2.i3, %11
  %12 = getelementptr inbounds i8, ptr %0, i64 24
  %13 = load i32, ptr %12, align 8
  %14 = sext i32 %13 to i64
  %15 = getelementptr inbounds i64, ptr %0, i64 %14
  %16 = zext nneg i32 %.3.i4 to i64
  %17 = sub nsw i64 0, %16
  %18 = getelementptr inbounds ptr, ptr %15, i64 %17
  %. = select i1 %.not, i64 -2, i64 -4
  %19 = getelementptr inbounds i8, ptr %18, i64 %.
  ret ptr %19
}